; Function Attrs: mustprogress nounwind uwtable
define dso_local void @_ZN4llvm8codeview7consumeERNS_18BinaryStreamReaderERj(ptr dead_on_unwind noalias writable sret(%"class.llvm::Error") align 8 %0, ptr noundef nonnull align 8 dereferenceable(64) %1, ptr nocapture noundef nonnull writeonly align 4 dereferenceable(4) %2) local_unnamed_addr #1 {
  %4 = alloca %"class.llvm::ArrayRef", align 8
  tail call void @llvm.experimental.noalias.scope.decl(metadata !46)
  call void @llvm.lifetime.start.p0(i64 16, ptr nonnull %4)
  call void @llvm.memset.p0.i64(ptr noundef nonnull align 8 dereferenceable(16) %4, i8 0, i64 16, i1 false), !noalias !46
  call void @_ZN4llvm18BinaryStreamReader9readBytesERNS_8ArrayRefIhEEj(ptr dead_on_unwind writable sret(%"class.llvm::Error") align 8 %0, ptr noundef nonnull align 8 dereferenceable(64) %1, ptr noundef nonnull align 8 dereferenceable(16) %4, i32 noundef 4) #14
  %5 = load ptr, ptr %0, align 8, !alias.scope !46
  %.not.i = icmp eq ptr %5, null
  br i1 %.not.i, label %_ZN4llvm12ErrorSuccessD2Ev.exit.i, label %_ZN4llvm18BinaryStreamReader11readIntegerIjEENS_5ErrorERT_.exit

_ZN4llvm12ErrorSuccessD2Ev.exit.i:                ; preds = %3
  %6 = load ptr, ptr %4, align 8, !noalias !46
  %7 = getelementptr inbounds i8, ptr %1, i64 24
  %8 = load ptr, ptr %7, align 8, !noalias !46
  %9 = load ptr, ptr %8, align 8
  %10 = getelementptr inbounds i8, ptr %9, i64 16
  %11 = load ptr, ptr %10, align 8
  %12 = call noundef i32 %11(ptr noundef nonnull align 8 dereferenceable(8) %8) #14
  call void @llvm.assume(i1 true) [ "align"(ptr %6, i64 1) ]
  %.0.copyload.i.i = load i32, ptr %6, align 1
  %.not.i.i.i = icmp eq i32 %12, 1
  %13 = call i32 @llvm.bswap.i32(i32 %.0.copyload.i.i)
  %spec.select.i.i.i = select i1 %.not.i.i.i, i32 %.0.copyload.i.i, i32 %13
  store i32 %spec.select.i.i.i, ptr %2, align 4, !noalias !46
  store ptr null, ptr %0, align 8, !alias.scope !46
  br label %_ZN4llvm18BinaryStreamReader11readIntegerIjEENS_5ErrorERT_.exit

_ZN4llvm18BinaryStreamReader11readIntegerIjEENS_5ErrorERT_.exit: ; preds = %3, %_ZN4llvm12ErrorSuccessD2Ev.exit.i
  call void @llvm.lifetime.end.p0(i64 16, ptr nonnull %4)
  ret void
}